target datalayout = "e-m:e-p270:32:32-p271:32:32-p272:64:64-i64:64-i128:128-f80:128-n8:16:32:64-S128"
target triple = "x86_64-pc-linux-gnu"

%struct.mlib_image = type { i32, i32, i32, i32, i32, i32, ptr, ptr, [4 x i8], i32, i32, [3 x i32] }

; Function Attrs: nounwind uwtable
define internal i32 @mlib_ImageGetType(ptr noundef %0) #0 {
  %2 = alloca ptr, align 8
  store ptr %0, ptr %2, align 8
  %3 = load ptr, ptr %2, align 8
  %4 = getelementptr inbounds %struct.mlib_image, ptr %3, i32 0, i32 0
  %5 = load i32, ptr %4, align 8
  ret i32 %5
}

; Function Attrs: nounwind uwtable
define i32 @j2d_mlib_ImageConvMxN(ptr noundef %0, ptr noundef %1, ptr noundef %2, i32 noundef %3, i32 noundef %4, i32 noundef %5, i32 noundef %6, i32 noundef %7, i32 noundef %8, i32 noundef %9) #0 {
  %11 = alloca i32, align 4
  %12 = alloca ptr, align 8
  %13 = alloca ptr, align 8
  %14 = alloca ptr, align 8
  %15 = alloca i32, align 4
  %16 = alloca i32, align 4
  %17 = alloca i32, align 4
  %18 = alloca i32, align 4
  %19 = alloca i32, align 4
  %20 = alloca i32, align 4
  %21 = alloca i32, align 4
  store ptr %0, ptr %12, align 8
  store ptr %1, ptr %13, align 8
  store ptr %2, ptr %14, align 8
  store i32 %3, ptr %15, align 4
  store i32 %4, ptr %16, align 4
  store i32 %5, ptr %17, align 4
  store i32 %6, ptr %18, align 4
  store i32 %7, ptr %19, align 4
  store i32 %8, ptr %20, align 4
  store i32 %9, ptr %21, align 4
  %22 = load ptr, ptr %12, align 8
  %23 = icmp eq ptr %22, null
  br i1 %23, label %24, label %25

24:                                               ; preds = %10
  store i32 2, ptr %11, align 4
  br label %62

25:                                               ; preds = %10
  %26 = load ptr, ptr %12, align 8
  %27 = call i32 @mlib_ImageGetType(ptr noundef %26)
  switch i32 %27, label %49 [
    i32 1, label %28
    i32 2, label %36
    i32 6, label %36
    i32 3, label %44
  ]

28:                                               ; preds = %25
  %29 = load i32, ptr %19, align 4
  %30 = icmp slt i32 %29, 16
  br i1 %30, label %34, label %31

31:                                               ; preds = %28
  %32 = load i32, ptr %19, align 4
  %33 = icmp sgt i32 %32, 31
  br i1 %33, label %34, label %35

34:                                               ; preds = %31, %28
  store i32 1, ptr %11, align 4
  br label %62

35:                                               ; preds = %31
  br label %50

36:                                               ; preds = %25, %25
  %37 = load i32, ptr %19, align 4
  %38 = icmp slt i32 %37, 17
  br i1 %38, label %42, label %39

39:                                               ; preds = %36
  %40 = load i32, ptr %19, align 4
  %41 = icmp sgt i32 %40, 32
  br i1 %41, label %42, label %43

42:                                               ; preds = %39, %36
  store i32 1, ptr %11, align 4
  br label %62

43:                                               ; preds = %39
  br label %50

44:                                               ; preds = %25
  %45 = load i32, ptr %19, align 4
  %46 = icmp slt i32 %45, 0
  br i1 %46, label %47, label %48

47:                                               ; preds = %44
  store i32 1, ptr %11, align 4
  br label %62

48:                                               ; preds = %44
  br label %50

49:                                               ; preds = %25
  store i32 1, ptr %11, align 4
  br label %62

50:                                               ; preds = %48, %43, %35
  %51 = load ptr, ptr %12, align 8
  %52 = load ptr, ptr %13, align 8
  %53 = load ptr, ptr %14, align 8
  %54 = load i32, ptr %15, align 4
  %55 = load i32, ptr %16, align 4
  %56 = load i32, ptr %17, align 4
  %57 = load i32, ptr %18, align 4
  %58 = load i32, ptr %19, align 4
  %59 = load i32, ptr %20, align 4
  %60 = load i32, ptr %21, align 4
  %61 = call i32 @mlib_ImageConvMxN_f(ptr noundef %51, ptr noundef %52, ptr noundef %53, i32 noundef %54, i32 noundef %55, i32 noundef %56, i32 noundef %57, i32 noundef %58, i32 noundef %59, i32 noundef %60)
  store i32 %61, ptr %11, align 4
  br label %62

62:                                               ; preds = %50, %49, %47, %42, %34, %24
  %63 = load i32, ptr %11, align 4
  ret i32 %63
}