; Function Attrs: nounwind uwtable
define i32 @j2d_mlib_ImageConvMxN(ptr noundef %0, ptr noundef %1, ptr noundef %2, i32 noundef %3, i32 noundef %4, i32 noundef %5, i32 noundef %6, i32 noundef %7, i32 noundef %8, i32 noundef %9) local_unnamed_addr #0 {
  %11 = icmp eq ptr %0, null
  br i1 %11, label %21, label %12

12:                                               ; preds = %10
  %.val = load i32, ptr %0, align 8
  switch i32 %.val, label %21 [
    i32 1, label %13
    i32 2, label %15
    i32 6, label %15
    i32 3, label %17
  ]

13:                                               ; preds = %12
  %14 = add i32 %7, -32
  %or.cond = icmp ult i32 %14, -16
  br i1 %or.cond, label %21, label %19

15:                                               ; preds = %12, %12
  %16 = add i32 %7, -33
  %or.cond3 = icmp ult i32 %16, -16
  br i1 %or.cond3, label %21, label %19

17:                                               ; preds = %12
  %18 = icmp slt i32 %7, 0
  br i1 %18, label %21, label %19

19:                                               ; preds = %17, %15, %13
  %20 = tail call i32 @mlib_ImageConvMxN_f(ptr noundef nonnull %0, ptr noundef %1, ptr noundef %2, i32 noundef %3, i32 noundef %4, i32 noundef %5, i32 noundef %6, i32 noundef %7, i32 noundef %8, i32 noundef %9)
  br label %21

21:                                               ; preds = %12, %17, %15, %13, %10, %19
  %.0 = phi i32 [ %20, %19 ], [ 2, %10 ], [ 1, %13 ], [ 1, %15 ], [ 1, %17 ], [ 1, %12 ]
  ret i32 %.0
}